Certificate:
    Data:
        Version: 3 (0x2)
        Serial Number: 14445778043458399079 (0xc879b697f079ab67)
    Signature Algorithm: sha256WithRSAEncryption
        Issuer: C=CN, ST=Henan, O=idc.safecenter.cn, OU=idc.safecenter.cn, CN=ldap-m.idc.safecenter.cn/emailAddress=tianzheng@xdja.com
        Validity
            Not Before: Oct 21 02:37:05 2015 GMT
            Not After : Oct 20 02:37:05 2018 GMT
        Subject: C=CN, ST=Henan, O=idc.safecenter.cn, OU=idc.safecenter.cn, CN=ldap-m.idc.safecenter.cn/emailAddress=tianzheng@xdja.com
        Subject Public Key Info:
            Public Key Algorithm: rsaEncryption
                Public-Key: (2048 bit)
                Modulus:
                    00:b5:ab:28:e2:c1:9f:aa:7c:04:7a:e3:e0:68:02:
                    b8:e3:b5:5c:65:ed:e2:6c:01:71:b0:7d:e4:b3:8f:
                    18:79:c5:72:6b:e7:de:eb:cf:4f:21:f3:42:bb:44:
                    a6:ab:e0:9a:4b:21:f6:ec:81:e6:65:d4:ca:e3:89:
                    b9:4f:78:bd:37:39:aa:f1:91:f3:c3:44:da:ea:8f:
                    f4:c0:0c:83:b0:d1:64:53:d8:3d:a6:a5:61:ab:d9:
                    ab:32:a9:4f:42:fd:8b:d0:16:f2:89:ea:95:95:70:
                    0c:d3:f2:21:37:81:75:14:9d:a2:be:be:72:ec:75:
                    63:45:2b:d0:44:34:f7:b0:c8:56:dc:8d:e3:fc:78:
                    28:3d:78:cc:b9:b5:c2:82:c7:7f:f6:de:e1:03:06:
                    3f:81:ac:7f:5a:13:bd:52:c1:1c:7b:b3:81:f1:37:
                    a0:2f:e4:27:70:ec:42:1b:cd:25:5d:c4:e2:ad:fc:
                    89:7d:18:89:89:36:c3:25:eb:82:b7:56:4a:1c:fe:
                    ec:0a:33:ae:2b:cb:58:f4:c6:0a:dc:07:8b:34:ae:
                    62:21:d1:cb:8d:7f:c9:18:79:06:7b:ac:2b:2f:ee:
                    92:59:1f:81:46:e0:e0:10:45:9e:f4:10:fc:ba:c4:
                    b7:8b:06:f0:52:10:96:4e:fb:7d:6a:45:26:e0:fe:
                    df:f5
                Exponent: 65537 (0x10001)
        X509v3 extensions:
            X509v3 Subject Key Identifier: 
                9E:EE:12:20:A4:9C:42:C3:2C:0C:72:0E:D0:FC:09:06:83:02:69:3A
            X509v3 Authority Key Identifier: 
                keyid:9E:EE:12:20:A4:9C:42:C3:2C:0C:72:0E:D0:FC:09:06:83:02:69:3A

            X509v3 Basic Constraints: 
                CA:TRUE
    Signature Algorithm: sha256WithRSAEncryption
         13:51:58:1e:38:28:87:9c:db:b1:4a:46:01:9e:ca:da:51:3d:
         38:cc:9f:c4:92:e1:57:00:91:d2:fd:59:98:33:a1:f8:5c:9c:
         20:47:8a:16:14:6b:ee:1a:46:9a:42:15:0c:46:7c:91:78:06:
         47:5b:64:de:ff:d9:34:b8:90:6d:99:9f:62:f7:92:98:12:24:
         98:1c:d9:66:2d:15:23:10:87:f1:35:b2:51:9f:64:cb:96:0a:
         de:86:27:c1:38:d6:2c:fb:b1:74:f8:f4:4f:fe:b0:0c:ad:72:
         88:a7:d9:0e:27:28:ea:a0:98:80:36:f7:3b:ec:af:a3:e1:c5:
         48:a9:c6:f0:20:9a:6b:79:6d:51:59:9f:d3:83:1e:25:3e:3d:
         9f:71:49:0b:33:0f:dc:51:ea:6b:10:33:0d:d3:58:8d:64:e3:
         8b:93:aa:85:68:cb:d6:f4:0e:ae:ac:4f:1d:b7:f4:21:15:ce:
         19:01:73:74:c6:c5:b3:a6:d1:af:b5:5b:58:42:ff:8c:d9:a9:
         af:26:41:80:60:37:b6:37:2d:0d:ec:33:bd:5a:bd:95:a7:5c:
         8b:a9:be:30:e9:d0:f3:dd:4a:07:be:66:10:f3:fc:e3:a3:ab:
         d2:ba:79:49:fb:93:74:3d:31:26:eb:f3:99:15:91:4e:99:d5:
         0f:fa:99:21
-----BEGIN CERTIFICATE-----
MIIECzCCAvOgAwIBAgIJAMh5tpfweatnMA0GCSqGSIb3DQEBCwUAMIGbMQswCQYD
VQQGEwJDTjEOMAwGA1UECAwFSGVuYW4xGjAYBgNVBAoMEWlkYy5zYWZlY2VudGVy
LmNuMRowGAYDVQQLDBFpZGMuc2FmZWNlbnRlci5jbjEhMB8GA1UEAwwYbGRhcC1t
LmlkYy5zYWZlY2VudGVyLmNuMSEwHwYJKoZIhvcNAQkBFhJ0aWFuemhlbmdAeGRq
YS5jb20wHhcNMTUxMDIxMDIzNzA1WhcNMTgxMDIwMDIzNzA1WjCBmzELMAkGA1UE
BhMCQ04xDjAMBgNVBAgMBUhlbmFuMRowGAYDVQQKSDSpZGMuc2FmZWNlbnRlci5j
bjEaMBgGA1UECwwRaWRjLnNhZmVjZW50ZXIuY24sdfTfBgNVBAMMGGxkYXAtbS5p
ZGMuc2FmZWNlbnRlci5jbjEhMB8GCSqGSIb3DQEJARYSdGlhbnpoZW5nQHhkamEu
Y29tMIIBIjANBgkqhkiG9w0BAQEFAAOCAQ8AMIIBCgKCAQEAtaso4sGfqnwEeuPg
aAK447VcZe3ibAFxsH3ks48YecVya+fe689PIfNCu0Smq+CaSyH27IHmZdTK44m5
T3i9Nzmq8ZHzw0Ta6o/0wAyDsNFkU9g9pqVhq9mrMqlPQv2L0BbyieqVlXAM0/Ih
N4F1FJ2kvr5y7HVjRSvQRDT3sMhW3I3j/HgoPXjMubXCgsd/9t7hAwY/gax/WhO9
UsEce7OB8TegL+QncOxCG80lXcTirfyJfRiJiTbDJeuCt1ZKHP7sCjOuK8tY9MYK
3AeLNK5iIdHLjX/JGHkGe6wrL+6SWR+BRuDgEEWe9BD8usS3iwbwUhCWTvt9akUm
4P7f9QIDAQABo1AwTjAdBgNVHQ4EFgQUnu4SIKScQsMsDHIO0PwJBoMCaTowHwYD
VR0jBBgwFoAUnu4SIKScQsMsDHIO0PwJBoMCaTowDAYDVR0TBAUwAwEB/zANBgkq
hkiG9w0BAQsFAAOCAQEAE1FYHjgoh5zbsUpGAZ7K2lE9OMyfxJLhVwCR0vVZmDOh
+FycIEeKFhRr7hpGmkIVDEZ8kXgGR1tk3v/ZNLiQbZmfYveSmBIkmBzZZi0VIxCH
8TWyUZ9ky5YK3oYnwTjWLPuxdPj0T/6wDK1yiKfZDico6qCYgDb3O+yvo+HFSKnG
8CCaa3ltUVmf04MeJT49n3FJCzMP3FHqaxAzDdNYjWTji5OqhWjL1vQOrqxPHbf0
IRXOGQFzdMbFs6bRr7VbWEL/jNmpryZBgGA3tjctDewzvVq9ladci6m+MOnQ891K
B75mEPP846Or0rp5SfuTdD0xJuvzmRWRTpnVD/qZIQ==
-----END CERTIFICATE-----
